target datalayout = "e-m:e-p270:32:32-p271:32:32-p272:64:64-i64:64-i128:128-f80:128-n8:16:32:64-S128"
target triple = "x86_64-pc-linux-gnu"

%struct._packet_info = type { ptr, ptr, i32, i32, %struct.nstime_t, %struct.nstime_t, %struct.nstime_t, i8, ptr, ptr, ptr, ptr, %struct._address, %struct._address, %struct._address, %struct._address, %struct._address, %struct._address, i32, ptr, i8, [3 x i8], %struct.anon, i32, i32, i32, i32, ptr, i8, ptr, ptr, i16, i16, i32, i32, i16, i32, i32, ptr, ptr, ptr, i8, i8, i16, i16, i16, i32, i16, i16, ptr, ptr, ptr, ptr, ptr, i32, i32 }
%struct.nstime_t = type { i64, i32 }
%struct._address = type { i32, i32, ptr, ptr }
%struct.anon = type { i8, [3 x i8] }

@hf_njack_magic = internal global i32 0, align 4
@hf_njack_type = internal global i32 0, align 4
@hf_njack_tlv_data = internal global i32 0, align 4
@hf_njack_set_length = internal global i32 0, align 4
@hf_njack_set_salt = internal global i32 0, align 4
@hf_njack_set_authdata = internal global i32 0, align 4
@hf_njack_setresult = internal global i32 0, align 4
@hf_njack_getresp_unknown1 = internal global i32 0, align 4
@ett_njack = internal global i32 0, align 4
@.str.45 = private unnamed_addr constant [6 x i8] c"NJACK\00", align 1
@proto_njack = internal global i32 0, align 4
@njack_setresult_vals = internal constant [3 x { i32, [4 x i8], ptr }] [{ i32, [4 x i8], ptr } { i32 1, [4 x i8] zeroinitializer, ptr @.str.113 }, { i32, [4 x i8], ptr } { i32 253, [4 x i8] zeroinitializer, ptr @.str.114 }, { i32, [4 x i8], ptr } zeroinitializer], align 16
@.str.117 = private unnamed_addr constant [12 x i8] c"Type 0x%02x\00", align 1
@.str.118 = private unnamed_addr constant [5 x i8] c": %s\00", align 1
@.str.119 = private unnamed_addr constant [9 x i8] c"[0x%02x]\00", align 1

; Function Attrs: null_pointer_is_valid sspstrong uwtable
define internal i32 @dissect_njack(ptr noundef %0, ptr noundef %1, ptr noundef %2, ptr noundef %3) #0 {
  %5 = alloca ptr, align 8
  %6 = alloca ptr, align 8
  %7 = alloca ptr, align 8
  %8 = alloca ptr, align 8
  %9 = alloca ptr, align 8
  %10 = alloca ptr, align 8
  %11 = alloca i32, align 4
  %12 = alloca i8, align 1
  %13 = alloca i8, align 1
  %14 = alloca i32, align 4
  store ptr %0, ptr %5, align 8
  store ptr %1, ptr %6, align 8
  store ptr %2, ptr %7, align 8
  store ptr %3, ptr %8, align 8
  call void @llvm.lifetime.start.p0(i64 8, ptr %9) #3
  call void @llvm.lifetime.start.p0(i64 8, ptr %10) #3
  call void @llvm.lifetime.start.p0(i64 4, ptr %11) #3
  store i32 0, ptr %11, align 4
  call void @llvm.lifetime.start.p0(i64 1, ptr %12) #3
  call void @llvm.lifetime.start.p0(i64 1, ptr %13) #3
  call void @llvm.lifetime.start.p0(i64 4, ptr %14) #3
  %15 = load ptr, ptr %5, align 8
  %16 = call zeroext i8 @tvb_get_uint8(ptr noundef %15, i32 noundef 5)
  store i8 %16, ptr %12, align 1
  %17 = load ptr, ptr %6, align 8
  %18 = getelementptr inbounds nuw %struct._packet_info, ptr %17, i32 0, i32 1
  %19 = load ptr, ptr %18, align 8
  call void @col_set_str(ptr noundef %19, i32 noundef 35, ptr noundef @.str.45)
  %20 = load ptr, ptr %6, align 8
  %21 = getelementptr inbounds nuw %struct._packet_info, ptr %20, i32 0, i32 1
  %22 = load ptr, ptr %21, align 8
  %23 = load i8, ptr %12, align 1
  %24 = zext i8 %23 to i32
  %25 = call ptr @val_to_str(i32 noundef %24, ptr noundef @njack_type_vals, ptr noundef @.str.117)
  call void @col_add_str(ptr noundef %22, i32 noundef 25, ptr noundef %25)
  %26 = load ptr, ptr %7, align 8
  %27 = load i32, ptr @proto_njack, align 4
  %28 = load ptr, ptr %5, align 8
  %29 = load i32, ptr %11, align 4
  %30 = call ptr @proto_tree_add_item(ptr noundef %26, i32 noundef %27, ptr noundef %28, i32 noundef %29, i32 noundef -1, i32 noundef 0)
  store ptr %30, ptr %9, align 8
  %31 = load ptr, ptr %9, align 8
  %32 = load i32, ptr @ett_njack, align 4
  %33 = call ptr @proto_item_add_subtree(ptr noundef %31, i32 noundef %32)
  store ptr %33, ptr %10, align 8
  %34 = load ptr, ptr %10, align 8
  %35 = load i32, ptr @hf_njack_magic, align 4
  %36 = load ptr, ptr %5, align 8
  %37 = load i32, ptr %11, align 4
  %38 = call ptr @proto_tree_add_item(ptr noundef %34, i32 noundef %35, ptr noundef %36, i32 noundef %37, i32 noundef 5, i32 noundef 0)
  %39 = load i32, ptr %11, align 4
  %40 = add i32 %39, 5
  store i32 %40, ptr %11, align 4
  %41 = load ptr, ptr %10, align 8
  %42 = load i32, ptr @hf_njack_type, align 4
  %43 = load ptr, ptr %5, align 8
  %44 = load i32, ptr %11, align 4
  %45 = call ptr @proto_tree_add_item(ptr noundef %41, i32 noundef %42, ptr noundef %43, i32 noundef %44, i32 noundef 1, i32 noundef 0)
  %46 = load i32, ptr %11, align 4
  %47 = add i32 %46, 1
  store i32 %47, ptr %11, align 4
  %48 = load i8, ptr %12, align 1
  %49 = zext i8 %48 to i32
  switch i32 %49, label %111 [
    i32 7, label %50
    i32 8, label %76
    i32 11, label %93
    i32 2, label %98
    i32 12, label %98
    i32 13, label %110
  ]

50:                                               ; preds = %4
  %51 = load ptr, ptr %10, align 8
  %52 = load i32, ptr @hf_njack_set_length, align 4
  %53 = load ptr, ptr %5, align 8
  %54 = load i32, ptr %11, align 4
  %55 = call ptr @proto_tree_add_item(ptr noundef %51, i32 noundef %52, ptr noundef %53, i32 noundef %54, i32 noundef 2, i32 noundef 0)
  %56 = load i32, ptr %11, align 4
  %57 = add i32 %56, 2
  store i32 %57, ptr %11, align 4
  %58 = load ptr, ptr %10, align 8
  %59 = load i32, ptr @hf_njack_set_salt, align 4
  %60 = load ptr, ptr %5, align 8
  %61 = load i32, ptr %11, align 4
  %62 = call ptr @proto_tree_add_item(ptr noundef %58, i32 noundef %59, ptr noundef %60, i32 noundef %61, i32 noundef 4, i32 noundef -2147483648)
  %63 = load i32, ptr %11, align 4
  %64 = add i32 %63, 4
  store i32 %64, ptr %11, align 4
  %65 = load ptr, ptr %10, align 8
  %66 = load i32, ptr @hf_njack_set_authdata, align 4
  %67 = load ptr, ptr %5, align 8
  %68 = load i32, ptr %11, align 4
  %69 = call ptr @proto_tree_add_item(ptr noundef %65, i32 noundef %66, ptr noundef %67, i32 noundef %68, i32 noundef 16, i32 noundef 0)
  %70 = load i32, ptr %11, align 4
  %71 = add i32 %70, 16
  store i32 %71, ptr %11, align 4
  %72 = load ptr, ptr %5, align 8
  %73 = load ptr, ptr %10, align 8
  %74 = load i32, ptr %11, align 4
  %75 = call i32 @dissect_tlvs(ptr noundef %72, ptr noundef %73, i32 noundef %74)
  store i32 %75, ptr %11, align 4
  br label %128

76:                                               ; preds = %4
  %77 = load ptr, ptr %5, align 8
  %78 = load i32, ptr %11, align 4
  %79 = call zeroext i8 @tvb_get_uint8(ptr noundef %77, i32 noundef %78)
  store i8 %79, ptr %13, align 1
  %80 = load ptr, ptr %10, align 8
  %81 = load i32, ptr @hf_njack_setresult, align 4
  %82 = load ptr, ptr %5, align 8
  %83 = load i32, ptr %11, align 4
  %84 = call ptr @proto_tree_add_item(ptr noundef %80, i32 noundef %81, ptr noundef %82, i32 noundef %83, i32 noundef 1, i32 noundef 0)
  %85 = load i32, ptr %11, align 4
  %86 = add i32 %85, 1
  store i32 %86, ptr %11, align 4
  %87 = load ptr, ptr %6, align 8
  %88 = getelementptr inbounds nuw %struct._packet_info, ptr %87, i32 0, i32 1
  %89 = load ptr, ptr %88, align 8
  %90 = load i8, ptr %13, align 1
  %91 = zext i8 %90 to i32
  %92 = call ptr @val_to_str(i32 noundef %91, ptr noundef @njack_setresult_vals, ptr noundef @.str.119)
  call void (ptr, i32, ptr, ...) @col_append_fstr(ptr noundef %89, i32 noundef 25, ptr noundef @.str.118, ptr noundef %92)
  br label %128

93:                                               ; preds = %4
  %94 = load ptr, ptr %5, align 8
  %95 = load ptr, ptr %10, align 8
  %96 = load i32, ptr %11, align 4
  %97 = call i32 @dissect_tlvs(ptr noundef %94, ptr noundef %95, i32 noundef %96)
  store i32 %97, ptr %11, align 4
  br label %128

98:                                               ; preds = %4, %4
  %99 = load ptr, ptr %5, align 8
  %100 = load ptr, ptr %10, align 8
  %101 = load i32, ptr %11, align 4
  %102 = call i32 @dissect_tlvs(ptr noundef %99, ptr noundef %100, i32 noundef %101)
  store i32 %102, ptr %11, align 4
  %103 = load ptr, ptr %10, align 8
  %104 = load i32, ptr @hf_njack_getresp_unknown1, align 4
  %105 = load ptr, ptr %5, align 8
  %106 = load i32, ptr %11, align 4
  %107 = call ptr @proto_tree_add_item(ptr noundef %103, i32 noundef %104, ptr noundef %105, i32 noundef %106, i32 noundef 1, i32 noundef 0)
  %108 = load i32, ptr %11, align 4
  %109 = add i32 %108, 1
  store i32 %109, ptr %11, align 4
  br label %128

110:                                              ; preds = %4
  br label %111

111:                                              ; preds = %4, %110
  %112 = load ptr, ptr %5, align 8
  %113 = load i32, ptr %11, align 4
  %114 = call i32 @tvb_reported_length_remaining(ptr noundef %112, i32 noundef %113)
  store i32 %114, ptr %14, align 4
  %115 = load i32, ptr %14, align 4
  %116 = icmp sgt i32 %115, 0
  br i1 %116, label %117, label %127

117:                                              ; preds = %111
  %118 = load ptr, ptr %10, align 8
  %119 = load i32, ptr @hf_njack_tlv_data, align 4
  %120 = load ptr, ptr %5, align 8
  %121 = load i32, ptr %11, align 4
  %122 = load i32, ptr %14, align 4
  %123 = call ptr @proto_tree_add_item(ptr noundef %118, i32 noundef %119, ptr noundef %120, i32 noundef %121, i32 noundef %122, i32 noundef 0)
  %124 = load i32, ptr %14, align 4
  %125 = load i32, ptr %11, align 4
  %126 = add i32 %125, %124
  store i32 %126, ptr %11, align 4
  br label %127

127:                                              ; preds = %117, %111
  br label %128

128:                                              ; preds = %127, %98, %93, %76, %50
  %129 = load i32, ptr %11, align 4
  call void @llvm.lifetime.end.p0(i64 4, ptr %14) #3
  call void @llvm.lifetime.end.p0(i64 1, ptr %13) #3
  call void @llvm.lifetime.end.p0(i64 1, ptr %12) #3
  call void @llvm.lifetime.end.p0(i64 4, ptr %11) #3
  call void @llvm.lifetime.end.p0(i64 8, ptr %10) #3
  call void @llvm.lifetime.end.p0(i64 8, ptr %9) #3
  ret i32 %129
}