; Function Attrs: null_pointer_is_valid sspstrong uwtable
define internal fastcc i32 @dissect_njack(ptr noundef %0, ptr noundef readonly captures(none) %1, ptr noundef %2) unnamed_addr #0 {
  %4 = tail call zeroext i8 @tvb_get_uint8(ptr noundef %0, i32 noundef 5)
  %5 = getelementptr inbounds nuw i8, ptr %1, i64 8
  %6 = load ptr, ptr %5, align 8
  tail call void @col_set_str(ptr noundef %6, i32 noundef 35, ptr noundef nonnull @.str.45)
  %7 = load ptr, ptr %5, align 8
  %8 = zext i8 %4 to i32
  %9 = tail call ptr @val_to_str(i32 noundef %8, ptr noundef nonnull @njack_type_vals, ptr noundef nonnull @.str.117)
  tail call void @col_add_str(ptr noundef %7, i32 noundef 25, ptr noundef %9)
  %10 = load i32, ptr @proto_njack, align 4
  %11 = tail call ptr @proto_tree_add_item(ptr noundef %2, i32 noundef %10, ptr noundef %0, i32 noundef 0, i32 noundef -1, i32 noundef 0)
  %12 = load i32, ptr @ett_njack, align 4
  %13 = tail call ptr @proto_item_add_subtree(ptr noundef %11, i32 noundef %12)
  %14 = load i32, ptr @hf_njack_magic, align 4
  %15 = tail call ptr @proto_tree_add_item(ptr noundef %13, i32 noundef %14, ptr noundef %0, i32 noundef 0, i32 noundef 5, i32 noundef 0)
  %16 = load i32, ptr @hf_njack_type, align 4
  %17 = tail call ptr @proto_tree_add_item(ptr noundef %13, i32 noundef %16, ptr noundef %0, i32 noundef 5, i32 noundef 1, i32 noundef 0)
  switch i8 %4, label %40 [
    i8 7, label %18
    i8 8, label %26
    i8 11, label %33
    i8 2, label %35
    i8 12, label %35
  ]

18:                                               ; preds = %3
  %19 = load i32, ptr @hf_njack_set_length, align 4
  %20 = tail call ptr @proto_tree_add_item(ptr noundef %13, i32 noundef %19, ptr noundef %0, i32 noundef 6, i32 noundef 2, i32 noundef 0)
  %21 = load i32, ptr @hf_njack_set_salt, align 4
  %22 = tail call ptr @proto_tree_add_item(ptr noundef %13, i32 noundef %21, ptr noundef %0, i32 noundef 8, i32 noundef 4, i32 noundef -2147483648)
  %23 = load i32, ptr @hf_njack_set_authdata, align 4
  %24 = tail call ptr @proto_tree_add_item(ptr noundef %13, i32 noundef %23, ptr noundef %0, i32 noundef 12, i32 noundef 16, i32 noundef 0)
  %25 = tail call fastcc i32 @dissect_tlvs(ptr noundef %0, ptr noundef %13, i32 noundef 28)
  br label %47

26:                                               ; preds = %3
  %27 = tail call zeroext i8 @tvb_get_uint8(ptr noundef %0, i32 noundef 6)
  %28 = load i32, ptr @hf_njack_setresult, align 4
  %29 = tail call ptr @proto_tree_add_item(ptr noundef %13, i32 noundef %28, ptr noundef %0, i32 noundef 6, i32 noundef 1, i32 noundef 0)
  %30 = load ptr, ptr %5, align 8
  %31 = zext i8 %27 to i32
  %32 = tail call ptr @val_to_str(i32 noundef %31, ptr noundef nonnull @njack_setresult_vals, ptr noundef nonnull @.str.119)
  tail call void (ptr, i32, ptr, ...) @col_append_fstr(ptr noundef %30, i32 noundef 25, ptr noundef nonnull @.str.118, ptr noundef %32)
  br label %47

33:                                               ; preds = %3
  %34 = tail call fastcc i32 @dissect_tlvs(ptr noundef %0, ptr noundef %13, i32 noundef 6)
  br label %47

35:                                               ; preds = %3, %3
  %36 = tail call fastcc i32 @dissect_tlvs(ptr noundef %0, ptr noundef %13, i32 noundef 6)
  %37 = load i32, ptr @hf_njack_getresp_unknown1, align 4
  %38 = tail call ptr @proto_tree_add_item(ptr noundef %13, i32 noundef %37, ptr noundef %0, i32 noundef %36, i32 noundef 1, i32 noundef 0)
  %39 = add i32 %36, 1
  br label %47

40:                                               ; preds = %3
  %41 = tail call i32 @tvb_reported_length_remaining(ptr noundef %0, i32 noundef 6)
  %42 = icmp sgt i32 %41, 0
  br i1 %42, label %43, label %47

43:                                               ; preds = %40
  %44 = load i32, ptr @hf_njack_tlv_data, align 4
  %45 = tail call ptr @proto_tree_add_item(ptr noundef %13, i32 noundef %44, ptr noundef %0, i32 noundef 6, i32 noundef %41, i32 noundef 0)
  %46 = add nuw i32 %41, 6
  br label %47

47:                                               ; preds = %40, %43, %35, %33, %26, %18
  %.0 = phi i32 [ %46, %43 ], [ 6, %40 ], [ %39, %35 ], [ %34, %33 ], [ 7, %26 ], [ %25, %18 ]
  ret i32 %.0
}